; ModuleID = '38/4.c'
source_filename = "38/4.c"
target datalayout = "e-m:e-p270:32:32-p271:32:32-p272:64:64-i64:64-f80:128-n8:16:32:64-S128"
target triple = "x86_64-pc-linux-gnu"

@.str = private unnamed_addr constant [3 x i8] c"%d\00", align 1
@.str.1 = private unnamed_addr constant [4 x i8] c"%lf\00", align 1
@.str.2 = private unnamed_addr constant [7 x i8] c"%.5lf\0A\00", align 1

; Function Attrs: noinline nounwind uwtable
define dso_local i32 @main() #0 {
  %1 = alloca i32, align 4
  %2 = alloca i32, align 4
  %3 = alloca i32, align 4
  %4 = alloca [1000 x [100 x double]], align 16
  %5 = alloca [100 x double], align 16
  %6 = alloca [100 x double], align 16
  %7 = alloca double, align 8
  %8 = alloca [100 x double], align 16
  %9 = alloca i32, align 4
  %10 = alloca i32, align 4
  %11 = alloca i32, align 4
  %12 = alloca i32, align 4
  store i32 0, i32* %1, align 4
  %13 = bitcast [100 x double]* %5 to i8*
  call void @llvm.memset.p0i8.i64(i8* align 16 %13, i8 0, i64 800, i1 false)
  %14 = bitcast [100 x double]* %6 to i8*
  call void @llvm.memset.p0i8.i64(i8* align 16 %14, i8 0, i64 800, i1 false)
  %15 = call i32 (i8*, ...) @__isoc99_scanf(i8* getelementptr inbounds ([3 x i8], [3 x i8]* @.str, i64 0, i64 0), i32* %2)
  store i32 0, i32* %9, align 4
  br label %16

16:                                               ; preds = %107, %0
  %17 = load i32, i32* %9, align 4
  %18 = load i32, i32* %2, align 4
  %19 = icmp slt i32 %17, %18
  br i1 %19, label %20, label %110

20:                                               ; preds = %16
  %21 = call i32 (i8*, ...) @__isoc99_scanf(i8* getelementptr inbounds ([3 x i8], [3 x i8]* @.str, i64 0, i64 0), i32* %3)
  store i32 0, i32* %10, align 4
  br label %22

22:                                               ; preds = %49, %20
  %23 = load i32, i32* %10, align 4
  %24 = load i32, i32* %3, align 4
  %25 = icmp slt i32 %23, %24
  br i1 %25, label %26, label %52

26:                                               ; preds = %22
  %27 = load i32, i32* %10, align 4
  %28 = sext i32 %27 to i64
  %29 = getelementptr inbounds [1000 x [100 x double]], [1000 x [100 x double]]* %4, i64 0, i64 %28
  %30 = load i32, i32* %9, align 4
  %31 = sext i32 %30 to i64
  %32 = getelementptr inbounds [100 x double], [100 x double]* %29, i64 0, i64 %31
  %33 = call i32 (i8*, ...) @__isoc99_scanf(i8* getelementptr inbounds ([4 x i8], [4 x i8]* @.str.1, i64 0, i64 0), double* %32)
  %34 = load i32, i32* %9, align 4
  %35 = sext i32 %34 to i64
  %36 = getelementptr inbounds [100 x double], [100 x double]* %5, i64 0, i64 %35
  %37 = load double, double* %36, align 8
  %38 = load i32, i32* %10, align 4
  %39 = sext i32 %38 to i64
  %40 = getelementptr inbounds [1000 x [100 x double]], [1000 x [100 x double]]* %4, i64 0, i64 %39
  %41 = load i32, i32* %9, align 4
  %42 = sext i32 %41 to i64
  %43 = getelementptr inbounds [100 x double], [100 x double]* %40, i64 0, i64 %42
  %44 = load double, double* %43, align 8
  %45 = fadd double %37, %44
  %46 = load i32, i32* %9, align 4
  %47 = sext i32 %46 to i64
  %48 = getelementptr inbounds [100 x double], [100 x double]* %5, i64 0, i64 %47
  store double %45, double* %48, align 8
  br label %49

49:                                               ; preds = %26
  %50 = load i32, i32* %10, align 4
  %51 = add nsw i32 %50, 1
  store i32 %51, i32* %10, align 4
  br label %22

52:                                               ; preds = %22
  %53 = load i32, i32* %9, align 4
  %54 = sext i32 %53 to i64
  %55 = getelementptr inbounds [100 x double], [100 x double]* %5, i64 0, i64 %54
  %56 = load double, double* %55, align 8
  %57 = load i32, i32* %3, align 4
  %58 = sitofp i32 %57 to double
  %59 = fdiv double %56, %58
  store double %59, double* %7, align 8
  store i32 0, i32* %11, align 4
  br label %60

60:                                               ; preds = %92, %52
  %61 = load i32, i32* %11, align 4
  %62 = load i32, i32* %3, align 4
  %63 = icmp slt i32 %61, %62
  br i1 %63, label %64, label %95

64:                                               ; preds = %60
  %65 = load i32, i32* %9, align 4
  %66 = sext i32 %65 to i64
  %67 = getelementptr inbounds [100 x double], [100 x double]* %6, i64 0, i64 %66
  %68 = load double, double* %67, align 8
  %69 = load i32, i32* %11, align 4
  %70 = sext i32 %69 to i64
  %71 = getelementptr inbounds [1000 x [100 x double]], [1000 x [100 x double]]* %4, i64 0, i64 %70
  %72 = load i32, i32* %9, align 4
  %73 = sext i32 %72 to i64
  %74 = getelementptr inbounds [100 x double], [100 x double]* %71, i64 0, i64 %73
  %75 = load double, double* %74, align 8
  %76 = load double, double* %7, align 8
  %77 = fsub double %75, %76
  %78 = load i32, i32* %11, align 4
  %79 = sext i32 %78 to i64
  %80 = getelementptr inbounds [1000 x [100 x double]], [1000 x [100 x double]]* %4, i64 0, i64 %79
  %81 = load i32, i32* %9, align 4
  %82 = sext i32 %81 to i64
  %83 = getelementptr inbounds [100 x double], [100 x double]* %80, i64 0, i64 %82
  %84 = load double, double* %83, align 8
  %85 = load double, double* %7, align 8
  %86 = fsub double %84, %85
  %87 = fmul double %77, %86
  %88 = fadd double %68, %87
  %89 = load i32, i32* %9, align 4
  %90 = sext i32 %89 to i64
  %91 = getelementptr inbounds [100 x double], [100 x double]* %6, i64 0, i64 %90
  store double %88, double* %91, align 8
  br label %92

92:                                               ; preds = %64
  %93 = load i32, i32* %11, align 4
  %94 = add nsw i32 %93, 1
  store i32 %94, i32* %11, align 4
  br label %60

95:                                               ; preds = %60
  %96 = load i32, i32* %9, align 4
  %97 = sext i32 %96 to i64
  %98 = getelementptr inbounds [100 x double], [100 x double]* %6, i64 0, i64 %97
  %99 = load double, double* %98, align 8
  %100 = load i32, i32* %3, align 4
  %101 = sitofp i32 %100 to double
  %102 = fdiv double %99, %101
  %103 = call double @sqrt(double %102) #4
  %104 = load i32, i32* %9, align 4
  %105 = sext i32 %104 to i64
  %106 = getelementptr inbounds [100 x double], [100 x double]* %8, i64 0, i64 %105
  store double %103, double* %106, align 8
  br label %107

107:                                              ; preds = %95
  %108 = load i32, i32* %9, align 4
  %109 = add nsw i32 %108, 1
  store i32 %109, i32* %9, align 4
  br label %16

110:                                              ; preds = %16
  store i32 0, i32* %12, align 4
  br label %111

111:                                              ; preds = %121, %110
  %112 = load i32, i32* %12, align 4
  %113 = load i32, i32* %2, align 4
  %114 = icmp slt i32 %112, %113
  br i1 %114, label %115, label %124

115:                                              ; preds = %111
  %116 = load i32, i32* %12, align 4
  %117 = sext i32 %116 to i64
  %118 = getelementptr inbounds [100 x double], [100 x double]* %8, i64 0, i64 %117
  %119 = load double, double* %118, align 8
  %120 = call i32 (i8*, ...) @printf(i8* getelementptr inbounds ([7 x i8], [7 x i8]* @.str.2, i64 0, i64 0), double %119)
  br label %121

121:                                              ; preds = %115
  %122 = load i32, i32* %12, align 4
  %123 = add nsw i32 %122, 1
  store i32 %123, i32* %12, align 4
  br label %111

124:                                              ; preds = %111
  ret i32 0
}

; Function Attrs: argmemonly nounwind willreturn
declare void @llvm.memset.p0i8.i64(i8* nocapture writeonly, i8, i64, i1 immarg) #1

declare dso_local i32 @__isoc99_scanf(i8*, ...) #2

; Function Attrs: nounwind
declare dso_local double @sqrt(double) #3

declare dso_local i32 @printf(i8*, ...) #2


!llvm.module.flags = !{!0}
!llvm.ident = !{!1}

!0 = !{i32 1, !"wchar_size", i32 4}
!1 = !{!"clang version 10.0.0-4ubuntu1 "}
